(dp0
S'PNG_PLUS'
p1
I9
sS'JPG_PLUS'
p2
I6
sS'META-INF'
p3
I10
sS'UNKNOWN_SP_EN'
p4
I7
sS'PNG_MINUS'
p5
I2
sS'JPG_NORM'
p6
I8
sS'BXML_PLUS'
p7
I3
sS'OGG_NORM'
p8
I19
sS'UNKNOWN_SN_EP'
p9
I12
sS'ELF_NORM'
p10
I18
sS'UNKNOWN_SN_EN'
p11
I13
sS'UNKNOWN_SN_EM'
p12
I20
sS'BXML_MINUS'
p13
I4
sS'JPG_MINUS'
p14
I11
sS'UNKNOWN_SM_EN'
p15
I17
sS'UNKNOWN_SP_EP'
p16
I15
sS'PNG_NORM'
p17
I1
sS'UNKNOWN_SM_EM'
p18
I14
sS'XML_NORM'
p19
I16
sS'BXML_NORM'
p20
I5
s.